target datalayout = "e-m:e-p270:32:32-p271:32:32-p272:64:64-i64:64-i128:128-f80:128-n8:16:32:64-S128"
target triple = "x86_64-pc-linux-gnu"

%struct.strbuf = type { i64, i64, ptr }
%struct.dirent = type { i64, i64, i16, i8, [256 x i8] }

@strbuf_slopbuf = external global [0 x i8], align 1
@.str.24 = private unnamed_addr constant [1 x i8] zeroinitializer, align 1
@git_gettext_enabled = external global i32, align 4
@.str.25 = private unnamed_addr constant [11 x i8] c"./strbuf.h\00", align 1
@.str.26 = private unnamed_addr constant [30 x i8] c"strbuf_setlen() beyond buffer\00", align 1
@.str.27 = private unnamed_addr constant [2 x i8] c".\00", align 1
@.str.35 = private unnamed_addr constant [4 x i8] c"%s/\00", align 1
@__const.add_directory_to_archiver.buf = private unnamed_addr constant %struct.strbuf { i64 0, i64 0, ptr @strbuf_slopbuf }, align 8
@.str.38 = private unnamed_addr constant [41 x i8] c"could not archive missing directory '%s'\00", align 1
@.str.39 = private unnamed_addr constant [30 x i8] c"could not open directory '%s'\00", align 1
@.str.40 = private unnamed_addr constant [12 x i8] c"--prefix=%s\00", align 1
@__const.add_directory_to_archiver.abspath = private unnamed_addr constant %struct.strbuf { i64 0, i64 0, ptr @strbuf_slopbuf }, align 8
@.str.41 = private unnamed_addr constant [14 x i8] c"--add-file=%s\00", align 1
@.str.42 = private unnamed_addr constant [51 x i8] c"skipping '%s', which is neither file nor directory\00", align 1

; Function Attrs: inlinehint nounwind uwtable
define internal i64 @strbuf_avail(ptr noundef %0) #4 {
  %2 = alloca ptr, align 8
  store ptr %0, ptr %2, align 8, !tbaa !27
  %3 = load ptr, ptr %2, align 8, !tbaa !27
  %4 = getelementptr inbounds nuw %struct.strbuf, ptr %3, i32 0, i32 0
  %5 = load i64, ptr %4, align 8, !tbaa !79
  %6 = icmp ne i64 %5, 0
  br i1 %6, label %7, label %16

7:                                                ; preds = %1
  %8 = load ptr, ptr %2, align 8, !tbaa !27
  %9 = getelementptr inbounds nuw %struct.strbuf, ptr %8, i32 0, i32 0
  %10 = load i64, ptr %9, align 8, !tbaa !79
  %11 = load ptr, ptr %2, align 8, !tbaa !27
  %12 = getelementptr inbounds nuw %struct.strbuf, ptr %11, i32 0, i32 1
  %13 = load i64, ptr %12, align 8, !tbaa !51
  %14 = sub i64 %10, %13
  %15 = sub i64 %14, 1
  br label %17

16:                                               ; preds = %1
  br label %17

17:                                               ; preds = %16, %7
  %18 = phi i64 [ %15, %7 ], [ 0, %16 ]
  ret i64 %18
}

; Function Attrs: inlinehint nounwind uwtable
define internal void @strbuf_addstr(ptr noundef %0, ptr noundef %1) #4 {
  %3 = alloca ptr, align 8
  %4 = alloca ptr, align 8
  store ptr %0, ptr %3, align 8, !tbaa !27
  store ptr %1, ptr %4, align 8, !tbaa !9
  %5 = load ptr, ptr %3, align 8, !tbaa !27
  %6 = load ptr, ptr %4, align 8, !tbaa !9
  %7 = load ptr, ptr %4, align 8, !tbaa !9
  %8 = call i64 @strlen(ptr noundef %7) #10
  call void @strbuf_add(ptr noundef %5, ptr noundef %6, i64 noundef %8)
  ret void
}

; Function Attrs: inlinehint nounwind uwtable
define internal void @strbuf_setlen(ptr noundef %0, i64 noundef %1) #4 {
  %3 = alloca ptr, align 8
  %4 = alloca i64, align 8
  store ptr %0, ptr %3, align 8, !tbaa !27
  store i64 %1, ptr %4, align 8, !tbaa !17
  %5 = load i64, ptr %4, align 8, !tbaa !17
  %6 = load ptr, ptr %3, align 8, !tbaa !27
  %7 = getelementptr inbounds nuw %struct.strbuf, ptr %6, i32 0, i32 0
  %8 = load i64, ptr %7, align 8, !tbaa !79
  %9 = icmp ne i64 %8, 0
  br i1 %9, label %10, label %15

10:                                               ; preds = %2
  %11 = load ptr, ptr %3, align 8, !tbaa !27
  %12 = getelementptr inbounds nuw %struct.strbuf, ptr %11, i32 0, i32 0
  %13 = load i64, ptr %12, align 8, !tbaa !79
  %14 = sub i64 %13, 1
  br label %16

15:                                               ; preds = %2
  br label %16

16:                                               ; preds = %15, %10
  %17 = phi i64 [ %14, %10 ], [ 0, %15 ]
  %18 = icmp ugt i64 %5, %17
  br i1 %18, label %19, label %20

19:                                               ; preds = %16
  call void (ptr, i32, ptr, ...) @BUG_fl(ptr noundef @.str.25, i32 noundef 167, ptr noundef @.str.26) #11
  unreachable

20:                                               ; preds = %16
  %21 = load i64, ptr %4, align 8, !tbaa !17
  %22 = load ptr, ptr %3, align 8, !tbaa !27
  %23 = getelementptr inbounds nuw %struct.strbuf, ptr %22, i32 0, i32 1
  store i64 %21, ptr %23, align 8, !tbaa !51
  %24 = load ptr, ptr %3, align 8, !tbaa !27
  %25 = getelementptr inbounds nuw %struct.strbuf, ptr %24, i32 0, i32 2
  %26 = load ptr, ptr %25, align 8, !tbaa !31
  %27 = icmp ne ptr %26, @strbuf_slopbuf
  br i1 %27, label %28, label %34

28:                                               ; preds = %20
  %29 = load ptr, ptr %3, align 8, !tbaa !27
  %30 = getelementptr inbounds nuw %struct.strbuf, ptr %29, i32 0, i32 2
  %31 = load ptr, ptr %30, align 8, !tbaa !31
  %32 = load i64, ptr %4, align 8, !tbaa !17
  %33 = getelementptr inbounds nuw i8, ptr %31, i64 %32
  store i8 0, ptr %33, align 1, !tbaa !24
  br label %35

34:                                               ; preds = %20
  br label %35

35:                                               ; preds = %34, %28
  ret void
}

; Function Attrs: inlinehint nounwind uwtable
define internal void @strbuf_addch(ptr noundef %0, i32 noundef %1) #4 {
  %3 = alloca ptr, align 8
  %4 = alloca i32, align 4
  store ptr %0, ptr %3, align 8, !tbaa !27
  store i32 %1, ptr %4, align 4, !tbaa !11
  %5 = load ptr, ptr %3, align 8, !tbaa !27
  %6 = call i64 @strbuf_avail(ptr noundef %5)
  %7 = icmp ne i64 %6, 0
  br i1 %7, label %10, label %8

8:                                                ; preds = %2
  %9 = load ptr, ptr %3, align 8, !tbaa !27
  call void @strbuf_grow(ptr noundef %9, i64 noundef 1)
  br label %10

10:                                               ; preds = %8, %2
  %11 = load i32, ptr %4, align 4, !tbaa !11
  %12 = trunc i32 %11 to i8
  %13 = load ptr, ptr %3, align 8, !tbaa !27
  %14 = getelementptr inbounds nuw %struct.strbuf, ptr %13, i32 0, i32 2
  %15 = load ptr, ptr %14, align 8, !tbaa !31
  %16 = load ptr, ptr %3, align 8, !tbaa !27
  %17 = getelementptr inbounds nuw %struct.strbuf, ptr %16, i32 0, i32 1
  %18 = load i64, ptr %17, align 8, !tbaa !51
  %19 = add i64 %18, 1
  store i64 %19, ptr %17, align 8, !tbaa !51
  %20 = getelementptr inbounds nuw i8, ptr %15, i64 %18
  store i8 %12, ptr %20, align 1, !tbaa !24
  %21 = load ptr, ptr %3, align 8, !tbaa !27
  %22 = getelementptr inbounds nuw %struct.strbuf, ptr %21, i32 0, i32 2
  %23 = load ptr, ptr %22, align 8, !tbaa !31
  %24 = load ptr, ptr %3, align 8, !tbaa !27
  %25 = getelementptr inbounds nuw %struct.strbuf, ptr %24, i32 0, i32 1
  %26 = load i64, ptr %25, align 8, !tbaa !51
  %27 = getelementptr inbounds nuw i8, ptr %23, i64 %26
  store i8 0, ptr %27, align 1, !tbaa !24
  ret void
}

; Function Attrs: inlinehint nounwind uwtable
define internal i32 @const_error() #4 {
  ret i32 -1
}

; Function Attrs: inlinehint nounwind uwtable
define internal ptr @_(ptr noundef %0) #4 {
  %2 = alloca ptr, align 8
  %3 = alloca ptr, align 8
  store ptr %0, ptr %3, align 8, !tbaa !9
  %4 = load ptr, ptr %3, align 8, !tbaa !9
  %5 = load i8, ptr %4, align 1, !tbaa !24
  %6 = icmp ne i8 %5, 0
  br i1 %6, label %8, label %7

7:                                                ; preds = %1
  store ptr @.str.24, ptr %2, align 8
  br label %16

8:                                                ; preds = %1
  %9 = load i32, ptr @git_gettext_enabled, align 4, !tbaa !11
  %10 = icmp ne i32 %9, 0
  br i1 %10, label %13, label %11

11:                                               ; preds = %8
  %12 = load ptr, ptr %3, align 8, !tbaa !9
  store ptr %12, ptr %2, align 8
  br label %16

13:                                               ; preds = %8
  %14 = load ptr, ptr %3, align 8, !tbaa !9
  %15 = call ptr @dcgettext(ptr noundef null, ptr noundef %14, i32 noundef 5) #9
  store ptr %15, ptr %2, align 8
  br label %16

16:                                               ; preds = %13, %11, %7
  %17 = load ptr, ptr %2, align 8
  ret ptr %17
}

; Function Attrs: nounwind uwtable
define internal i32 @add_directory_to_archiver(ptr noundef %0, ptr noundef %1, i32 noundef %2) #0 {
  %4 = alloca i32, align 4
  %5 = alloca ptr, align 8
  %6 = alloca ptr, align 8
  %7 = alloca i32, align 4
  %8 = alloca i32, align 4
  %9 = alloca ptr, align 8
  %10 = alloca ptr, align 8
  %11 = alloca %struct.strbuf, align 8
  %12 = alloca i64, align 8
  %13 = alloca i32, align 4
  %14 = alloca i32, align 4
  %15 = alloca %struct.strbuf, align 8
  %16 = alloca i8, align 1
  store ptr %0, ptr %5, align 8, !tbaa !94
  store ptr %1, ptr %6, align 8, !tbaa !9
  store i32 %2, ptr %7, align 4, !tbaa !11
  call void @llvm.lifetime.start.p0(i64 4, ptr %8) #9
  %17 = load ptr, ptr %6, align 8, !tbaa !9
  %18 = load i8, ptr %17, align 1, !tbaa !24
  %19 = icmp ne i8 %18, 0
  %20 = xor i1 %19, true
  %21 = zext i1 %20 to i32
  store i32 %21, ptr %8, align 4, !tbaa !11
  call void @llvm.lifetime.start.p0(i64 8, ptr %9) #9
  call void @llvm.lifetime.start.p0(i64 8, ptr %10) #9
  call void @llvm.lifetime.start.p0(i64 24, ptr %11) #9
  call void @llvm.memcpy.p0.p0.i64(ptr align 8 %11, ptr align 8 @__const.add_directory_to_archiver.buf, i64 24, i1 false)
  call void @llvm.lifetime.start.p0(i64 8, ptr %12) #9
  call void @llvm.lifetime.start.p0(i64 4, ptr %13) #9
  store i32 0, ptr %13, align 4, !tbaa !11
  %22 = load i32, ptr %8, align 4, !tbaa !11
  %23 = icmp ne i32 %22, 0
  br i1 %23, label %24, label %25

24:                                               ; preds = %3
  br label %27

25:                                               ; preds = %3
  %26 = load ptr, ptr %6, align 8, !tbaa !9
  br label %27

27:                                               ; preds = %25, %24
  %28 = phi ptr [ @.str.27, %24 ], [ %26, %25 ]
  %29 = call ptr @opendir(ptr noundef %28)
  store ptr %29, ptr %9, align 8, !tbaa !89
  %30 = load ptr, ptr %9, align 8, !tbaa !89
  %31 = icmp ne ptr %30, null
  br i1 %31, label %44, label %32

32:                                               ; preds = %27
  %33 = call ptr @__errno_location() #12
  %34 = load i32, ptr %33, align 4, !tbaa !11
  %35 = icmp eq i32 %34, 2
  br i1 %35, label %36, label %39

36:                                               ; preds = %32
  %37 = call ptr @_(ptr noundef @.str.38)
  %38 = load ptr, ptr %6, align 8, !tbaa !9
  call void (ptr, ...) @warning(ptr noundef %37, ptr noundef %38)
  store i32 0, ptr %4, align 4
  store i32 1, ptr %14, align 4
  br label %113

39:                                               ; preds = %32
  %40 = call ptr @_(ptr noundef @.str.39)
  %41 = load ptr, ptr %6, align 8, !tbaa !9
  %42 = call i32 (ptr, ...) @error_errno(ptr noundef %40, ptr noundef %41)
  %43 = call i32 @const_error()
  store i32 %43, ptr %4, align 4
  store i32 1, ptr %14, align 4
  br label %113

44:                                               ; preds = %27
  %45 = load i32, ptr %8, align 4, !tbaa !11
  %46 = icmp ne i32 %45, 0
  br i1 %46, label %49, label %47

47:                                               ; preds = %44
  %48 = load ptr, ptr %6, align 8, !tbaa !9
  call void (ptr, ptr, ...) @strbuf_addf(ptr noundef %11, ptr noundef @.str.35, ptr noundef %48)
  br label %49

49:                                               ; preds = %47, %44
  %50 = getelementptr inbounds nuw %struct.strbuf, ptr %11, i32 0, i32 1
  %51 = load i64, ptr %50, align 8, !tbaa !51
  store i64 %51, ptr %12, align 8, !tbaa !17
  %52 = load ptr, ptr %5, align 8, !tbaa !94
  %53 = getelementptr inbounds nuw %struct.strbuf, ptr %11, i32 0, i32 2
  %54 = load ptr, ptr %53, align 8, !tbaa !31
  %55 = call ptr (ptr, ptr, ...) @strvec_pushf(ptr noundef %52, ptr noundef @.str.40, ptr noundef %54)
  br label %56

56:                                               ; preds = %108, %49
  %57 = load i32, ptr %13, align 4, !tbaa !11
  %58 = icmp ne i32 %57, 0
  br i1 %58, label %63, label %59

59:                                               ; preds = %56
  %60 = load ptr, ptr %9, align 8, !tbaa !89
  %61 = call ptr @readdir_skip_dot_and_dotdot(ptr noundef %60)
  store ptr %61, ptr %10, align 8, !tbaa !91
  %62 = icmp ne ptr %61, null
  br label %63

63:                                               ; preds = %59, %56
  %64 = phi i1 [ false, %56 ], [ %62, %59 ]
  br i1 %64, label %65, label %109

65:                                               ; preds = %63
  call void @llvm.lifetime.start.p0(i64 24, ptr %15) #9
  call void @llvm.memcpy.p0.p0.i64(ptr align 8 %15, ptr align 8 @__const.add_directory_to_archiver.abspath, i64 24, i1 false)
  call void @llvm.lifetime.start.p0(i64 1, ptr %16) #9
  %66 = load i32, ptr %8, align 4, !tbaa !11
  %67 = icmp ne i32 %66, 0
  br i1 %67, label %68, label %69

68:                                               ; preds = %65
  br label %71

69:                                               ; preds = %65
  %70 = load ptr, ptr %6, align 8, !tbaa !9
  br label %71

71:                                               ; preds = %69, %68
  %72 = phi ptr [ @.str.27, %68 ], [ %70, %69 ]
  call void @strbuf_add_absolute_path(ptr noundef %15, ptr noundef %72)
  call void @strbuf_addch(ptr noundef %15, i32 noundef 47)
  %73 = load ptr, ptr %10, align 8, !tbaa !91
  %74 = call zeroext i8 @get_dtype(ptr noundef %73, ptr noundef %15, i32 noundef 0)
  store i8 %74, ptr %16, align 1, !tbaa !24
  %75 = load i64, ptr %12, align 8, !tbaa !17
  call void @strbuf_setlen(ptr noundef %11, i64 noundef %75)
  %76 = load ptr, ptr %10, align 8, !tbaa !91
  %77 = getelementptr inbounds nuw %struct.dirent, ptr %76, i32 0, i32 4
  %78 = getelementptr inbounds [256 x i8], ptr %77, i64 0, i64 0
  call void @strbuf_addstr(ptr noundef %11, ptr noundef %78)
  %79 = load i8, ptr %16, align 1, !tbaa !24
  %80 = zext i8 %79 to i32
  %81 = icmp eq i32 %80, 8
  br i1 %81, label %82, label %87

82:                                               ; preds = %71
  %83 = load ptr, ptr %5, align 8, !tbaa !94
  %84 = getelementptr inbounds nuw %struct.strbuf, ptr %11, i32 0, i32 2
  %85 = load ptr, ptr %84, align 8, !tbaa !31
  %86 = call ptr (ptr, ptr, ...) @strvec_pushf(ptr noundef %83, ptr noundef @.str.41, ptr noundef %85)
  br label %108

87:                                               ; preds = %71
  %88 = load i8, ptr %16, align 1, !tbaa !24
  %89 = zext i8 %88 to i32
  %90 = icmp ne i32 %89, 4
  br i1 %90, label %91, label %95

91:                                               ; preds = %87
  %92 = call ptr @_(ptr noundef @.str.42)
  %93 = getelementptr inbounds nuw %struct.strbuf, ptr %11, i32 0, i32 2
  %94 = load ptr, ptr %93, align 8, !tbaa !31
  call void (ptr, ...) @warning(ptr noundef %92, ptr noundef %94)
  br label %107

95:                                               ; preds = %87
  %96 = load i32, ptr %7, align 4, !tbaa !11
  %97 = icmp ne i32 %96, 0
  br i1 %97, label %98, label %106

98:                                               ; preds = %95
  %99 = load ptr, ptr %5, align 8, !tbaa !94
  %100 = getelementptr inbounds nuw %struct.strbuf, ptr %11, i32 0, i32 2
  %101 = load ptr, ptr %100, align 8, !tbaa !31
  %102 = load i32, ptr %7, align 4, !tbaa !11
  %103 = call i32 @add_directory_to_archiver(ptr noundef %99, ptr noundef %101, i32 noundef %102)
  %104 = icmp slt i32 %103, 0
  br i1 %104, label %105, label %106

105:                                              ; preds = %98
  store i32 -1, ptr %13, align 4, !tbaa !11
  br label %106

106:                                              ; preds = %105, %98, %95
  br label %107

107:                                              ; preds = %106, %91
  br label %108

108:                                              ; preds = %107, %82
  call void @strbuf_release(ptr noundef %15)
  call void @llvm.lifetime.end.p0(i64 1, ptr %16) #9
  call void @llvm.lifetime.end.p0(i64 24, ptr %15) #9
  br label %56, !llvm.loop !96

109:                                              ; preds = %63
  %110 = load ptr, ptr %9, align 8, !tbaa !89
  %111 = call i32 @closedir(ptr noundef %110)
  call void @strbuf_release(ptr noundef %11)
  %112 = load i32, ptr %13, align 4, !tbaa !11
  store i32 %112, ptr %4, align 4
  store i32 1, ptr %14, align 4
  br label %113

113:                                              ; preds = %109, %39, %36
  call void @llvm.lifetime.end.p0(i64 4, ptr %13) #9
  call void @llvm.lifetime.end.p0(i64 8, ptr %12) #9
  call void @llvm.lifetime.end.p0(i64 24, ptr %11) #9
  call void @llvm.lifetime.end.p0(i64 8, ptr %10) #9
  call void @llvm.lifetime.end.p0(i64 8, ptr %9) #9
  call void @llvm.lifetime.end.p0(i64 4, ptr %8) #9
  %114 = load i32, ptr %4, align 4
  ret i32 %114
}