; Function Attrs: nounwind uwtable
define internal fastcc range(i32 -1, 1) i32 @add_directory_to_archiver(ptr noundef nonnull %0, ptr noundef %1, i32 noundef %2) unnamed_addr #0 {
  %4 = alloca %struct.strbuf, align 8
  %5 = alloca %struct.strbuf, align 8
  %6 = load i8, ptr %1, align 1, !tbaa !22
  %.not = icmp eq i8 %6, 0
  call void @llvm.lifetime.start.p0(i64 24, ptr nonnull %4) #12
  call void @llvm.memcpy.p0.p0.i64(ptr noundef nonnull align 8 dereferenceable(24) %4, ptr noundef nonnull align 8 dereferenceable(24) @__const.add_directory_to_archiver.abspath, i64 24, i1 false)
  %7 = select i1 %.not, ptr @.str.27, ptr %1
  %8 = tail call ptr @opendir(ptr noundef nonnull %7)
  %.not29 = icmp eq ptr %8, null
  br i1 %.not29, label %9, label %21

9:                                                ; preds = %3
  %10 = tail call ptr @__errno_location() #15
  %11 = load i32, ptr %10, align 4, !tbaa !12
  %12 = icmp eq i32 %11, 2
  %13 = load i32, ptr @git_gettext_enabled, align 4, !tbaa !12
  %.not4.i = icmp eq i32 %13, 0
  br i1 %12, label %14, label %17

14:                                               ; preds = %9
  br i1 %.not4.i, label %_.exit, label %15

15:                                               ; preds = %14
  %16 = tail call ptr @dcgettext(ptr noundef null, ptr noundef nonnull @.str.38, i32 noundef 5) #12
  br label %_.exit

_.exit:                                           ; preds = %14, %15
  %.0.i = phi ptr [ %16, %15 ], [ @.str.38, %14 ]
  tail call void (ptr, ...) @warning(ptr noundef %.0.i, ptr noundef nonnull %1) #12
  br label %66

17:                                               ; preds = %9
  br i1 %.not4.i, label %_.exit36, label %18

18:                                               ; preds = %17
  %19 = tail call ptr @dcgettext(ptr noundef null, ptr noundef nonnull @.str.39, i32 noundef 5) #12
  br label %_.exit36

_.exit36:                                         ; preds = %17, %18
  %.0.i35 = phi ptr [ %19, %18 ], [ @.str.39, %17 ]
  %20 = tail call i32 (ptr, ...) @error_errno(ptr noundef %.0.i35, ptr noundef nonnull %1) #12
  br label %66

21:                                               ; preds = %3
  br i1 %.not, label %23, label %22

22:                                               ; preds = %21
  call void (ptr, ptr, ...) @strbuf_addf(ptr noundef nonnull %4, ptr noundef nonnull @.str.35, ptr noundef nonnull %1) #12
  %.phi.trans.insert = getelementptr inbounds nuw i8, ptr %4, i64 8
  %.pre = load i64, ptr %.phi.trans.insert, align 8, !tbaa !21
  %.phi.trans.insert42 = getelementptr inbounds nuw i8, ptr %4, i64 16
  %.pre43 = load ptr, ptr %.phi.trans.insert42, align 8, !tbaa !19
  br label %23

23:                                               ; preds = %22, %21
  %24 = phi ptr [ %.pre43, %22 ], [ @strbuf_slopbuf, %21 ]
  %25 = phi i64 [ %.pre, %22 ], [ 0, %21 ]
  %26 = getelementptr inbounds nuw i8, ptr %4, i64 8
  %27 = getelementptr inbounds nuw i8, ptr %4, i64 16
  %28 = call ptr (ptr, ptr, ...) @strvec_pushf(ptr noundef nonnull %0, ptr noundef nonnull @.str.40, ptr noundef %24) #12
  %29 = getelementptr inbounds nuw i8, ptr %5, i64 8
  %30 = getelementptr inbounds nuw i8, ptr %5, i64 16
  %.not33 = icmp eq i32 %2, 0
  br label %31

.critedge45:                                      ; preds = %60, %_.exit39, %52
  call void @strbuf_release(ptr noundef nonnull %5) #12
  call void @llvm.lifetime.end.p0(i64 24, ptr nonnull %5) #12
  br label %.backedge

31:                                               ; preds = %.backedge, %23
  %32 = call ptr @readdir_skip_dot_and_dotdot(ptr noundef nonnull %8) #12
  %.not31 = icmp eq ptr %32, null
  br i1 %.not31, label %.critedge, label %33

33:                                               ; preds = %31
  call void @llvm.lifetime.start.p0(i64 24, ptr nonnull %5) #12
  call void @llvm.memcpy.p0.p0.i64(ptr noundef nonnull align 8 dereferenceable(24) %5, ptr noundef nonnull align 8 dereferenceable(24) @__const.add_directory_to_archiver.abspath, i64 24, i1 false)
  call void @strbuf_add_absolute_path(ptr noundef nonnull %5, ptr noundef nonnull %7) #12
  %34 = load i64, ptr %5, align 8, !tbaa !63
  %.not.i.i = icmp eq i64 %34, 0
  br i1 %.not.i.i, label %strbuf_avail.exit.thread.i, label %strbuf_avail.exit.i

strbuf_avail.exit.i:                              ; preds = %33
  %35 = load i64, ptr %29, align 8, !tbaa !21
  %.neg.i = add i64 %35, 1
  %.not.i = icmp eq i64 %34, %.neg.i
  br i1 %.not.i, label %strbuf_avail.exit.thread.i, label %strbuf_addch.exit

strbuf_avail.exit.thread.i:                       ; preds = %strbuf_avail.exit.i, %33
  call void @strbuf_grow(ptr noundef nonnull %5, i64 noundef 1) #12
  %.pre.i = load i64, ptr %29, align 8, !tbaa !21
  %.pre7.i = add i64 %.pre.i, 1
  br label %strbuf_addch.exit

strbuf_addch.exit:                                ; preds = %strbuf_avail.exit.i, %strbuf_avail.exit.thread.i
  %.pre-phi.i = phi i64 [ %.pre7.i, %strbuf_avail.exit.thread.i ], [ %.neg.i, %strbuf_avail.exit.i ]
  %36 = phi i64 [ %.pre.i, %strbuf_avail.exit.thread.i ], [ %35, %strbuf_avail.exit.i ]
  %37 = load ptr, ptr %30, align 8, !tbaa !19
  store i64 %.pre-phi.i, ptr %29, align 8, !tbaa !21
  %38 = getelementptr inbounds nuw i8, ptr %37, i64 %36
  store i8 47, ptr %38, align 1, !tbaa !22
  %39 = load ptr, ptr %30, align 8, !tbaa !19
  %40 = load i64, ptr %29, align 8, !tbaa !21
  %41 = getelementptr inbounds nuw i8, ptr %39, i64 %40
  store i8 0, ptr %41, align 1, !tbaa !22
  %42 = call zeroext i8 @get_dtype(ptr noundef nonnull %32, ptr noundef nonnull %5, i32 noundef 0) #12
  %43 = load i64, ptr %4, align 8, !tbaa !63
  %spec.select.i = call i64 @llvm.usub.sat.i64(i64 %43, i64 1)
  %44 = icmp ugt i64 %25, %spec.select.i
  br i1 %44, label %45, label %46

45:                                               ; preds = %strbuf_addch.exit
  call void (ptr, i32, ptr, ...) @BUG_fl(ptr noundef nonnull @.str.25, i32 noundef 167, ptr noundef nonnull @.str.26) #13
  unreachable

46:                                               ; preds = %strbuf_addch.exit
  store i64 %25, ptr %26, align 8, !tbaa !21
  %47 = load ptr, ptr %27, align 8, !tbaa !19
  %.not9.i = icmp eq ptr %47, @strbuf_slopbuf
  br i1 %.not9.i, label %strbuf_setlen.exit, label %48

48:                                               ; preds = %46
  %49 = getelementptr inbounds nuw i8, ptr %47, i64 %25
  store i8 0, ptr %49, align 1, !tbaa !22
  br label %strbuf_setlen.exit

strbuf_setlen.exit:                               ; preds = %46, %48
  %50 = getelementptr inbounds nuw i8, ptr %32, i64 19
  %51 = call i64 @strlen(ptr noundef nonnull dereferenceable(1) %50) #11
  call void @strbuf_add(ptr noundef nonnull %4, ptr noundef nonnull %50, i64 noundef %51) #12
  switch i8 %42, label %55 [
    i8 8, label %52
    i8 4, label %60
  ]

52:                                               ; preds = %strbuf_setlen.exit
  %53 = load ptr, ptr %27, align 8, !tbaa !19
  %54 = call ptr (ptr, ptr, ...) @strvec_pushf(ptr noundef nonnull %0, ptr noundef nonnull @.str.41, ptr noundef %53) #12
  br label %.critedge45

55:                                               ; preds = %strbuf_setlen.exit
  %56 = load i32, ptr @git_gettext_enabled, align 4, !tbaa !12
  %.not4.i37 = icmp eq i32 %56, 0
  br i1 %.not4.i37, label %_.exit39, label %57

57:                                               ; preds = %55
  %58 = call ptr @dcgettext(ptr noundef null, ptr noundef nonnull @.str.42, i32 noundef 5) #12
  br label %_.exit39

_.exit39:                                         ; preds = %55, %57
  %.0.i38 = phi ptr [ %58, %57 ], [ @.str.42, %55 ]
  %59 = load ptr, ptr %27, align 8, !tbaa !19
  call void (ptr, ...) @warning(ptr noundef %.0.i38, ptr noundef %59) #12
  br label %.critedge45

60:                                               ; preds = %strbuf_setlen.exit
  br i1 %.not33, label %.critedge45, label %61

61:                                               ; preds = %60
  %62 = load ptr, ptr %27, align 8, !tbaa !19
  %63 = call fastcc i32 @add_directory_to_archiver(ptr noundef %0, ptr noundef %62, i32 noundef %2)
  %64 = icmp eq i32 %63, 0
  call void @strbuf_release(ptr noundef nonnull %5) #12
  call void @llvm.lifetime.end.p0(i64 24, ptr nonnull %5) #12
  br i1 %64, label %.backedge, label %.critedge

.backedge:                                        ; preds = %61, %.critedge45
  br label %31, !llvm.loop !80

.critedge:                                        ; preds = %61, %31
  %.024.lcssa = phi i32 [ -1, %61 ], [ 0, %31 ]
  %65 = call i32 @closedir(ptr noundef nonnull %8)
  call void @strbuf_release(ptr noundef nonnull %4) #12
  br label %66

66:                                               ; preds = %.critedge, %_.exit36, %_.exit
  %.0 = phi i32 [ %.024.lcssa, %.critedge ], [ 0, %_.exit ], [ -1, %_.exit36 ]
  call void @llvm.lifetime.end.p0(i64 24, ptr nonnull %4) #12
  ret i32 %.0
}